target datalayout = "e-m:e-p270:32:32-p271:32:32-p272:64:64-i64:64-i128:128-f80:128-n8:16:32:64-S128"
target triple = "x86_64-pc-linux-gnu"

%struct.tsi_ssl_root_certs_store = type { ptr }

; Function Attrs: mustprogress uwtable
define void @_Z32tsi_ssl_root_certs_store_destroyP24tsi_ssl_root_certs_store(ptr noundef %0) #4 {
  %2 = alloca ptr, align 8
  store ptr %0, ptr %2, align 8, !tbaa !38
  %3 = load ptr, ptr %2, align 8, !tbaa !38
  %4 = icmp eq ptr %3, null
  br i1 %4, label %5, label %6

5:                                                ; preds = %1
  br label %11

6:                                                ; preds = %1
  %7 = load ptr, ptr %2, align 8, !tbaa !38
  %8 = getelementptr inbounds nuw %struct.tsi_ssl_root_certs_store, ptr %7, i32 0, i32 0
  %9 = load ptr, ptr %8, align 8, !tbaa !40
  call void @X509_STORE_free(ptr noundef %9)
  %10 = load ptr, ptr %2, align 8, !tbaa !38
  call void @gpr_free(ptr noundef %10)
  br label %11

11:                                               ; preds = %6, %5
  ret void
}