; Function Attrs: mustprogress uwtable
define void @_Z32tsi_ssl_root_certs_store_destroyP24tsi_ssl_root_certs_store(ptr noundef %0) local_unnamed_addr #3 {
  %2 = icmp eq ptr %0, null
  br i1 %2, label %5, label %3

3:                                                ; preds = %1
  %4 = load ptr, ptr %0, align 8, !tbaa !25
  tail call void @X509_STORE_free(ptr noundef %4)
  tail call void @gpr_free(ptr noundef nonnull %0)
  br label %5

5:                                                ; preds = %1, %3
  ret void
}